target datalayout = "e-m:e-p270:32:32-p271:32:32-p272:64:64-i64:64-i128:128-f80:128-n8:16:32:64-S128"
target triple = "x86_64-pc-linux-gnu"

%"class.std::__cxx11::basic_string" = type { %"struct.std::__cxx11::basic_string<char>::_Alloc_hider", i64, %union.anon }
%"struct.std::__cxx11::basic_string<char>::_Alloc_hider" = type { ptr }
%union.anon = type { i64, [8 x i8] }
%"class.std::allocator.4" = type { i8 }
%"class.std::basic_string_view" = type { i64, ptr }
%"struct.nix::SQLiteStmt" = type { ptr, ptr, %"class.std::__cxx11::basic_string" }
%"class.nix::SQLiteStmt::Use" = type <{ ptr, i32, [4 x i8] }>

@.str.23 = private unnamed_addr constant [17 x i8] c"binding argument\00", align 1

; Function Attrs: mustprogress nounwind uwtable
define linkonce_odr noundef ptr @_ZNKSt17basic_string_viewIcSt11char_traitsIcEE4dataEv(ptr noundef nonnull align 8 dereferenceable(16) %0) #2 comdat align 2 {
  %2 = alloca ptr, align 8
  store ptr %0, ptr %2, align 8
  %3 = load ptr, ptr %2, align 8
  %4 = getelementptr inbounds %"class.std::basic_string_view", ptr %3, i32 0, i32 1
  %5 = load ptr, ptr %4, align 8
  ret ptr %5
}

; Function Attrs: mustprogress nounwind uwtable
define linkonce_odr noundef ptr @_ZN3nix10SQLiteStmtcvP12sqlite3_stmtEv(ptr noundef nonnull align 8 dereferenceable(48) %0) #2 comdat align 2 {
  %2 = alloca ptr, align 8
  store ptr %0, ptr %2, align 8
  %3 = load ptr, ptr %2, align 8
  %4 = getelementptr inbounds %"struct.nix::SQLiteStmt", ptr %3, i32 0, i32 1
  %5 = load ptr, ptr %4, align 8
  ret ptr %5
}

; Function Attrs: mustprogress uwtable
define noundef nonnull align 8 dereferenceable(12) ptr @_ZN3nix10SQLiteStmt3UseclESt17basic_string_viewIcSt11char_traitsIcEEb(ptr noundef nonnull align 8 dereferenceable(12) %0, i64 %1, ptr %2, i1 noundef zeroext %3) #3 align 2 personality ptr @__gxx_personality_v0 {
  %5 = alloca %"class.std::basic_string_view", align 8
  %6 = alloca ptr, align 8
  %7 = alloca i8, align 1
  %8 = alloca %"class.std::__cxx11::basic_string", align 8
  %9 = alloca %"class.std::allocator.4", align 1
  %10 = alloca ptr, align 8
  %11 = alloca i32, align 4
  %12 = getelementptr inbounds { i64, ptr }, ptr %5, i32 0, i32 0
  store i64 %1, ptr %12, align 8
  %13 = getelementptr inbounds { i64, ptr }, ptr %5, i32 0, i32 1
  store ptr %2, ptr %13, align 8
  store ptr %0, ptr %6, align 8
  %14 = zext i1 %3 to i8
  store i8 %14, ptr %7, align 1
  %15 = load ptr, ptr %6, align 8
  %16 = load i8, ptr %7, align 1
  %17 = trunc i8 %16 to i1
  br i1 %17, label %18, label %45

18:                                               ; preds = %4
  %19 = getelementptr inbounds %"class.nix::SQLiteStmt::Use", ptr %15, i32 0, i32 0
  %20 = load ptr, ptr %19, align 8
  %21 = call noundef ptr @_ZN3nix10SQLiteStmtcvP12sqlite3_stmtEv(ptr noundef nonnull align 8 dereferenceable(48) %20)
  %22 = getelementptr inbounds %"class.nix::SQLiteStmt::Use", ptr %15, i32 0, i32 1
  %23 = load i32, ptr %22, align 8
  %24 = add i32 %23, 1
  store i32 %24, ptr %22, align 8
  %25 = call noundef ptr @_ZNKSt17basic_string_viewIcSt11char_traitsIcEE4dataEv(ptr noundef nonnull align 8 dereferenceable(16) %5) #1
  %26 = call i32 @sqlite3_bind_text(ptr noundef %21, i32 noundef %23, ptr noundef %25, i32 noundef -1, ptr noundef inttoptr (i64 -1 to ptr))
  %27 = icmp ne i32 %26, 0
  br i1 %27, label %28, label %44

28:                                               ; preds = %18
  %29 = getelementptr inbounds %"class.nix::SQLiteStmt::Use", ptr %15, i32 0, i32 0
  %30 = load ptr, ptr %29, align 8
  %31 = getelementptr inbounds %"struct.nix::SQLiteStmt", ptr %30, i32 0, i32 0
  %32 = load ptr, ptr %31, align 8
  call void @_ZNSaIcEC1Ev(ptr noundef nonnull align 1 dereferenceable(1) %9) #1
  invoke void @_ZNSt7__cxx1112basic_stringIcSt11char_traitsIcESaIcEEC2IS3_EEPKcRKS3_(ptr noundef nonnull align 8 dereferenceable(32) %8, ptr noundef @.str.23, ptr noundef nonnull align 1 dereferenceable(1) %9)
          to label %33 unwind label %35

33:                                               ; preds = %28
  invoke void @_ZN3nix11SQLiteError6throw_IJEEEvP7sqlite3RKNSt7__cxx1112basic_stringIcSt11char_traitsIcESaIcEEEDpRKT_(ptr noundef %32, ptr noundef nonnull align 8 dereferenceable(32) %8) #18
          to label %34 unwind label %39

34:                                               ; preds = %33
  unreachable

35:                                               ; preds = %28
  %36 = landingpad { ptr, i32 }
          cleanup
  %37 = extractvalue { ptr, i32 } %36, 0
  store ptr %37, ptr %10, align 8
  %38 = extractvalue { ptr, i32 } %36, 1
  store i32 %38, ptr %11, align 4
  br label %43

39:                                               ; preds = %33
  %40 = landingpad { ptr, i32 }
          cleanup
  %41 = extractvalue { ptr, i32 } %40, 0
  store ptr %41, ptr %10, align 8
  %42 = extractvalue { ptr, i32 } %40, 1
  store i32 %42, ptr %11, align 4
  call void @_ZNSt7__cxx1112basic_stringIcSt11char_traitsIcESaIcEED2Ev(ptr noundef nonnull align 8 dereferenceable(32) %8) #1
  br label %43

43:                                               ; preds = %39, %35
  call void @_ZNSaIcED1Ev(ptr noundef nonnull align 1 dereferenceable(1) %9) #1
  br label %48

44:                                               ; preds = %18
  br label %47

45:                                               ; preds = %4
  %46 = call noundef nonnull align 8 dereferenceable(12) ptr @_ZN3nix10SQLiteStmt3Use4bindEv(ptr noundef nonnull align 8 dereferenceable(12) %15)
  br label %47

47:                                               ; preds = %45, %44
  ret ptr %15

48:                                               ; preds = %43
  %49 = load ptr, ptr %10, align 8
  %50 = load i32, ptr %11, align 4
  %51 = insertvalue { ptr, i32 } poison, ptr %49, 0
  %52 = insertvalue { ptr, i32 } %51, i32 %50, 1
  resume { ptr, i32 } %52
}